Certificate:
    Data:
        Version: 3 (0x2)
        Serial Number:
            72:36:45:38:f0:5a:c1:1d:ec:73:97:69:57:45:29:cd:af:94:4c:05
        Signature Algorithm: sha256WithRSAEncryption
        Issuer: C=BR, ST=Sao_Paulo, O=Telefonica, CN=*.maas
        Validity
            Not Before: Jan 12 19:33:00 2021 GMT
            Not After : Jan 10 19:33:00 2031 GMT
        Subject: C=BR, ST=Sao_Paulo, O=Telefonica, CN=*.maas
        Subject Public Key Info:
            Public Key Algorithm: rsaEncryption
                RSA Public-Key: (4096 bit)
                Modulus:
                    00:cb:87:92:8a:b2:60:d4:58:3d:d1:40:d1:02:7a:
                    2b:89:c8:1b:35:e4:82:86:22:e3:31:12:5c:ec:c9:
                    89:64:ae:ef:74:36:5b:69:7f:a9:2b:d7:e4:5e:89:
                    b7:5e:d6:4b:29:d7:6b:4d:0d:6f:7a:a8:f8:1e:fd:
                    c3:d5:c9:5a:93:f4:18:ed:39:06:fb:44:32:f3:24:
                    88:20:c9:de:ad:99:76:87:05:d3:ee:b7:10:91:ec:
                    54:3d:04:fc:59:7b:fd:d7:26:e4:63:0c:5a:32:af:
                    2b:cd:2b:4a:e9:c7:02:82:e8:f0:6c:73:30:fc:28:
                    66:0d:dd:3d:67:6c:51:7f:3e:cd:8a:85:87:dc:49:
                    8e:de:bf:17:15:ac:9c:ee:04:cb:46:2a:5a:7e:81:
                    2a:63:4b:b5:7a:3d:94:ee:3e:b7:3b:d2:f9:8e:71:
                    5f:77:28:32:2a:03:cf:dd:51:3e:05:8f:e3:fa:ec:
                    cf:4a:cd:da:c5:68:03:ad:7a:6d:ac:f9:b4:88:82:
                    0a:05:c4:fc:73:e0:dc:2e:83:5c:40:19:10:c5:52:
                    02:f0:71:07:2e:43:ff:8c:03:dc:91:3a:80:58:83:
                    db:52:ab:1f:44:0a:79:6c:2d:26:e1:65:76:c4:17:
                    d2:c8:94:58:6e:ef:3c:15:06:8f:55:f4:0d:48:92:
                    29:20:32:b8:55:22:2f:cb:f5:b4:7a:1c:0e:d9:80:
                    21:a0:4e:e9:2c:e6:b3:3e:7e:f0:99:a4:1d:98:0a:
                    9c:06:41:8b:b6:e4:1b:06:6c:bd:4e:39:2e:92:3e:
                    4c:97:01:a7:9e:6d:94:34:19:ce:9a:71:32:4d:52:
                    1a:29:ca:68:a3:c5:5a:c7:a9:aa:3a:ae:f2:6f:07:
                    17:c1:a2:2e:d5:1c:1b:1b:0d:f1:b0:f2:c0:78:68:
                    cb:e2:77:a6:97:42:7e:be:d8:73:53:cd:b3:a4:dc:
                    57:87:19:11:f2:b6:54:8d:33:eb:5b:b2:71:99:74:
                    85:e6:31:7b:de:1f:5d:be:d0:89:80:25:8a:1e:b6:
                    8e:da:68:e3:4f:e2:8c:ad:27:9a:07:5d:79:fe:55:
                    93:22:39:ea:96:d8:5b:ed:49:ec:b0:6c:94:be:65:
                    44:00:f3:9c:69:f8:f5:cb:39:82:32:c3:3b:56:38:
                    ff:95:7a:1b:be:29:1a:c4:c0:2f:54:a2:76:7b:b6:
                    f5:92:d1:e3:40:23:9c:6e:3a:1d:a0:31:65:86:4a:
                    c8:0d:2a:f9:25:d7:c2:8e:cb:2e:f3:cf:96:1c:2a:
                    b8:fd:4d:a0:f1:fb:da:5b:5d:62:ce:74:78:37:d2:
                    03:8a:7b:ea:ad:84:db:09:3e:65:3d:16:7c:1c:13:
                    10:da:f9
                Exponent: 65537 (0x10001)
        X509v3 extensions:
            X509v3 Basic Constraints: 
                CA:FALSE
            Netscape Comment: 
                OpenSSL Generated Certificate
            X509v3 Subject Key Identifier: 
                04:AD:EF:DB:6E:92:47:27:D2:E4:F2:91:18:16:B2:1B:60:C9:9A:77
            X509v3 Authority Key Identifier: 
                keyid:4F:93:E2:FC:AA:79:2C:00:EA:F3:8E:B4:43:66:B6:4A:54:F4:2D:35

    Signature Algorithm: sha256WithRSAEncryption
         63:01:96:a7:f0:00:ad:e3:4e:7a:0a:ac:30:d2:ed:be:b4:c3:
         80:21:f1:47:50:83:b6:65:1b:29:e5:21:73:7a:05:d4:41:99:
         a9:f9:d7:72:0d:97:17:6a:f8:b2:c0:ec:26:e3:5a:a5:a9:81:
         82:c5:3d:6c:53:11:4f:a1:43:fa:27:62:fa:07:3d:ac:fb:ec:
         31:00:9a:02:ef:60:d9:59:fa:60:71:56:fa:cb:9f:62:8b:60:
         53:68:6b:38:bd:23:0a:36:a7:8a:a6:00:c2:f4:b7:ad:8e:14:
         45:d2:fa:4e:4c:40:91:85:c5:db:cd:6d:e2:2e:52:5f:25:e1:
         ee:7f:44:19:91:40:6a:49:2d:9a:0b:88:03:7b:9a:82:45:62:
         5a:e8:f1:23:ae:79:0d:21:e6:5a:2a:cb:97:82:7b:16:91:3d:
         31:7d:66:3e:61:0e:ea:e7:8b:92:50:5e:01:51:c2:97:53:fe:
         7f:3f:2b:7b:71:21:45:94:8e:e7:0d:0a:8c:91:8f:3c:db:bf:
         5b:a1:f4:fe:7b:80:cd:6a:10:f0:67:db:6c:cd:77:40:5e:ac:
         36:75:d2:33:9b:e0:41:ba:d4:c1:9e:73:29:cd:fa:48:45:30:
         80:17:30:87:93:f0:44:b7:de:db:05:89:01:f5:06:93:00:71:
         23:49:d2:80:8c:b9:36:98:13:17:7d:48:2e:d9:69:40:d2:ae:
         f3:1f:ed:9b:da:a4:5d:d7:3c:33:d9:11:d9:1a:7c:3b:93:3c:
         86:21:23:ed:c3:c2:ae:ac:0e:c2:17:6c:d3:23:e0:d6:0c:2f:
         a7:dc:fe:0b:bf:89:a8:e5:25:77:45:80:39:8a:df:e5:07:1d:
         18:b8:0b:fa:9e:59:3b:ee:57:cd:59:8f:e1:bb:2a:9f:81:22:
         54:89:47:01:17:02:33:1d:1a:e1:48:f0:63:bc:c4:f7:30:6c:
         e9:be:b9:c9:ff:3f:5c:53:97:78:f6:cd:ee:c4:30:38:77:4d:
         ac:15:47:3a:c1:41:af:21:f1:6c:94:2f:69:64:da:89:f8:bc:
         40:1d:a7:57:40:e8:5c:f5:50:b4:a4:94:eb:18:be:b1:e8:30:
         42:f8:b9:fc:19:c8:8b:08:cf:34:12:5c:31:4d:92:8e:36:53:
         ed:ad:fa:6a:1d:00:65:1e:80:df:c3:76:5f:b9:c8:60:e2:c2:
         ab:86:bf:d3:87:ed:a5:33:75:51:61:76:b1:42:96:0b:4c:13:
         6a:d8:4a:8f:fd:0d:8a:3f:71:5a:ef:c5:3c:22:0d:8f:8a:ed:
         e3:88:42:b2:69:24:46:69:c8:02:0d:28:7a:5b:d5:0e:f7:9a:
         33:80:ba:93:d8:e5:fb:28
-----BEGIN CERTIFICATE-----
MIIFlzCCA3+gAwIBAgIUcjZFOPBawR3sc5dpV0Upza+UTAUwDQYJKoZIhvcNAQEL
BQAwRzELMAkGA1UEBhMCQlIxEjAQBgNVBAgMCVNhb19QYXVsbzETMBEGA1UECgwK
VGVsZWZvbmljYTEPMA0GA1UEAwwGKi5tYWFzMB4XDTIxMDExMjE5MzMwMFoXDTMx
MDExMDE5MzMwMFowRzELMAkGA1UEBhMCQlIxEjAQBgNVBAgMCVNhb19QYXVsbzET
MBEGA1UECgwKVGVsZWZvbmljYTEPMA0GA1UEAwwGKi5tYWFzMIICIjANBgkqhkiG
9w0BAQEFAAOCAg8AMIICCgKCAgEAy4eSirJg1Fg90UDRAnoricgbNeSChiLjMRJc
7MmJZK7vdDZbaX+pK9fkXom3XtZLKddrTQ1veqj4Hv3D1clak/QY7TkG+0Qy8ySI
IMnerZl2hwXT7rcQkexUPQT8WXv91ybkYwxaMq8rzStK6ccCgujwbHMw/ChmDd09
Z2xRfz7NioWH3EmO3r8XFayc7gTLRipafoEqY0u1ej2U7j63O9L5jnFfdygyKgPP
3VE+BY/j+uzPSs3axWgDrXptrPm0iIIKBcT8c+DcLoNcQBkQxVIC8HEHLkP/jAPc
kTqAWIPbUqsfRAp5bC0m4WV2xBfSyJRYbu88FQaPVfQNSJIpIDK4VSIvy/W0ehwO
2YAhoE7pLOazPn7wmaQdmAqcBkGLtuQbBmy9Tjkukj5MlwGnnm2UNBnOmnEyTVIa
Kcpoo8Vax6mqOq7ybwcXwaIu1RwbGw3xsPLAeGjL4neml0J+vthzU82zpNxXhxkR
8rZUjTPrW7JxmXSF5jF73h9dvtCJgCWKHraO2mjjT+KMrSeaB115/lWTIjnqlthb
7UnssGyUvmVEAPOcafj1yzmCMsM7Vjj/lXobvikaxMAvVKJ2e7b1ktHjQCOcbjod
oDFlhkrIDSr5JdfCjssu88+WHCq4/U2g8fvaW11iznR4N9IDinvqrYTbCT5lPRZ8
HBMQ2vkCAwEAAaN7MHkwCQYDVR0TBAIwADAsBglghkgBhvhCAQ0EHxYdT3BlblNT
TCBHZW5lcmF0ZWQgQ2VydGlmaWNhdGUwHQYDVR0OBBYEFASt79tukkcn0uTykRgW
shtgyZp3MB8GA1UdIwQYMBaAFE+T4vyqeSwA6vOOtENmtkpU9C01MA0GCSqGSIb3
DQEBCwUAA4ICAQBjAZan8ACt4056Cqww0u2+tMOAIfFHUIO2ZRsp5SFzegXUQZmp
+ddyDZcXaviywOwm41qlqYGCxT1sUxFPoUP6J2L6Bz2s++wxAJoC72DZWfpgcVb6
y59ii2BTaGs4vSMKNqeKpgDC9LetjhRF0vpOTECRhcXbzW3iLlJfJeHuf0QZkUBq
SS2aC4gDe5qCRWJa6PEjrnkNIeZaKsuXgnsWkT0xfWY+YQ7q54uSUF4BUcKXU/5/
Pyt7cSFFlI7nDQqMkY88279bofT+e4DNahDwZ9tszXdAXqw2ddIzm+BButTBnnMp
zfpIRTCAFzCHk/BEt97bBYkB9QaTAHEjSdKAjLk2mBMXfUgu2WlA0q7zH+2b2qRd
1zwz2RHZGnw7kzyGISPtw8KurA7CF2zTI+DWDC+n3P4Lv4mo5SV3RYA5it/lBx0Y
uAv6nlk77lfNWY/huyqfgSJUiUcBFwIzHRrhSPBjvMT3MGzpvrnJ/z9cU5d49s3u
xDA4d02sFUc6wUGvIfFslC9pZNqJ+LxAHadXQOhc9VC0pJTrGL6x6DBC+Ln8GciL
CM80ElwxTZKONlPtrfpqHQBlHoDfw3Zfuchg4sKrhr/Th+2lM3VRYXaxQpYLTBNq
2EqP/Q2KP3Fa78U8Ig2Piu3jiEKyaSRGacgCDSh6W9UO95ozgLqT2OX7KA==
-----END CERTIFICATE-----
-----BEGIN PRIVATE KEY-----
MIIJQwIBADANBgkqhkiG9w0BAQEFAASCCS0wggkpAgEAAoICAQDLh5KKsmDUWD3R
QNECeiuJyBs15IKGIuMxElzsyYlkru90Nltpf6kr1+Reibde1ksp12tNDW96qPge
/cPVyVqT9BjtOQb7RDLzJIggyd6tmXaHBdPutxCR7FQ9BPxZe/3XJuRjDFoyryvN
K0rpxwKC6PBsczD8KGYN3T1nbFF/Ps2KhYfcSY7evxcVrJzuBMtGKlp+gSpjS7V6
PZTuPrc70vmOcV93KDIqA8/dUT4Fj+P67M9KzdrFaAOtem2s+bSIggoFxPxz4Nwu
g1xAGRDFUgLwcQcuQ/+MA9yROoBYg9tSqx9ECnlsLSbhZXbEF9LIlFhu7zwVBo9V
9A1IkikgMrhVIi/L9bR6HA7ZgCGgTuks5rM+fvCZpB2YCpwGQYu25BsGbL1OOS6S
PkyXAaeebZQ0Gc6acTJNUhopymijxVrHqao6rvJvBxfBoi7VHBsbDfGw8sB4aMvi
d6aXQn6+2HNTzbOk3FeHGRHytlSNM+tbsnGZdIXmMXveH12+0ImAJYoeto7aaONP
4oytJ5oHXXn+VZMiOeqW2FvtSeywbJS+ZUQA85xp+PXLOYIywztWOP+Vehu+KRrE
wC9UonZ7tvWS0eNAI5xuOh2gMWWGSsgNKvkl18KOyy7zz5YcKrj9TaDx+9pbXWLO
dHg30gOKe+qthNsJPmU9FnwcExDa+QIDAQABAoICAENmbxH9RnGrkzUjuNOQL7De
EpzDQrI3BXOvuBQ2HYi5IdUjVxxVyWkagqcIBjCi2JtPmloW8+7z288vjFXU62kJ
seOFOhmlmRXJ6Earc1Gb+5N1S5zHBPa+A5t9djAQDpzcZU+jvI8CUYgNKS7H174Q
c+YGM5edrUY0GOySA18XJiwUUkySE30SXQuxcPqlncdrqTIxhh8B6GRF1ncbT8TA
9iHEy6+DITGmt4R8LgTbhM0I9RC5oRQ0gNtHKuDYhH+cSMNmW4/oTCIfIEKdyl79
7LlBRPZ+UDdG5Bk3/V7Ss6PpxV3b9h/rx+9mkXEYzpXcAnkiQoxX8smtG2UH+hP3
aLsudGNiiU5XBt33ky7Pz1dsgM8ReyaOAZ4YIJm0s6DOmlOPZqQZ32cH5PfSeo06
n+ReNoBi7S/zxGHpRRGYR+tHoxCsHl2Y+yyOiooG8ZUh/mgFn8EGhc5umSMzT0lR
4PB18yOizyl3ODiO4cKT6Fdf3cikQZc+2zD8O92Lb/dqMvcenulx5ZIlm7vDFFsX
sZ4MPuhVVX/4RIIGvzbXIpJ7gfGTXp67Tcd6poAwQGWH5+ztHL59kbe5OVzdMrSI
DWDkP/M/3EBiKnRTLt5GGXEyM1e0PmWpCz/Orzw1V4LaXj3zHtJTVz/mmAoLiCBx
MNWyn4FIAJBsJiH5yKcBAoIBAQDlLUM6CPmkLAZn7rcDVQtTgd+GU3MpsTrmNEiS
EyER+h6bPPl6ieduZtspSqrA+sXsyNlfPx8wX2xf1vwsOvQ+IA85lnQH0ySA28EV
sh/cZ3OC9WDORGpIiV/NfhSjHCtG/wvUh1gpsAR4s5at13sFQzC9gvBbYyapMiDS
g2HnoDdg6g1WVwkL6y93G6ok5W/QmUNQ5I4bjlAKC4pFztICzkYFqVM3r/RnQIJt
mBAC+Eef1xmNJz8tiIoZ+R9Aq3UpaeVg0TNodSfVN/o7c+Dtg4zQ3kN/VdT48hsq
oF/8rMEPbJYGNH3LEnG9bGoeJAf/f9g4OXmT8E0vAcUKYSdhAoIBAQDjWdoKaUGc
ZD2tAqVRsjzheZgvnsarmb9hoeAEZhmmK2pThGnyI7IW1Q6gIv1Bsm2xG5OPCUaa
uRtSxSVddMqJOoNo9d7X65Ibl9ASe+w795ijZWllhDLCiK7Yo1QVav23AiSTdtpK
/DMPgq5IXqsXtCAOIDU3uxUdsqO+9CCMUlBl2tp44dzLnKCr0sHvuZRaZWYUavWY
OQoeyi9KEtU+bvCFxQ8sgqnNDr6qOgF0d+FbysIY4sKXZoXe2m0G7MCeoHA9Gdc6
eyaQjfQ3j4NPkH85S4rKoOkm3EP/OChKpMYWfNPhlhbre124MOSmb5TfIaeS/U78
DH5sDc6ha5KZAoIBAQC2+qqgXaYkpFoBBaHt8Sr348v6Tgq3ESB7yObgapGO7usc
+1QduJmllk4J6+nl5tO8uKiF2bonPykiZF43WmLEb4h4bF38GWMd11eU4QF7UsXx
m8VNK2bIv5ZUVgRYLxeGugBSEjYcIsOPM6Rs7Iz2qKzzwuXxsXqewL1gFzJGY6+T
m4xGkXtRntfo+5efmejq3lPW9IVaDwhs3MXr8rPPNa7GumkNH1m+Ts1Uf4LZPC7D
ulRWVS2mR0wsbLG9SqhjBn/0C1RGZLQHE4ihi2XdfZki8zNlKby/f16dbCr3bV8/
12z5S1Pcnb9ehH89zXrtTr/uNEWUDtsxWvJd1TBBAoIBAQC23vA2jaGb1TmS71zg
0NiNmMvkCffN0daSBq31e9bHxYY59Xlurm2yVd/0yRAjBw2adw8C77gd/iTPOAqt
GKNNLIbFJ3f+/9o/XaadJ5bGSYs6avkTEfnuZhkV4pJgw/WefhfDkcdWp3O+1yOu
zI8ceuOJ2ThVQqNihu2VTDLeC9vlgdtXfn2mPa8zZkxeskx1RbiNVdeEgOT2DTVq
hKmIFZ5cSzzAVb2VVnXg4NWIxGC9/+KON9/D/lBSCCnIdykcrvp4+08XGDXV8ojt
I//AQP9Eq9HQ2QuRGX2MTbSDDfTT48ZeXubCtTGWVaWlhn0d2ak734rnzHjoG1cI
mkmJAoIBAGrQoh1fvKt9X3/htNMGuUSRGgzOrMKswZYso3cSfAlXQhjbij24AdGp
LKu7HbiMmBLelX9GfyxpDb9GrdrV/naTV3kz9hlM8Aq+un4vCBPKlwddgIL0yfLk
djQGS06qFLx1+2eEMekgYa7W86EqNJtyku93aY48ajF1j4ixepF7Cm2J78hes0fw
n0taEUkk9r9ddZjmOCUuB2cJqD815NHGLuPYHtwnh+pCqfEUnisVLZZ1sX8VF0xY
M4IBnXilJiiL1tyl12Uy6cjtYxqcQE3J6AgWyAnTmw75/+FKib0dQKFosVy6JSvc
KkgaYS9vdcKcyknaSSKLa3bHOI2ALKg=
-----END PRIVATE KEY-----
